target datalayout = "e-m:e-p270:32:32-p271:32:32-p272:64:64-i64:64-i128:128-f80:128-n8:16:32:64-S128"
target triple = "x86_64-pc-linux-gnu"

%struct._packet_info = type { ptr, ptr, i32, i32, %struct.nstime_t, %struct.nstime_t, %struct.nstime_t, i8, ptr, ptr, ptr, ptr, %struct._address, %struct._address, %struct._address, %struct._address, %struct._address, %struct._address, i32, ptr, i8, [3 x i8], %struct.anon, i32, i32, i32, i32, ptr, i8, ptr, ptr, i16, i16, i32, i32, i16, i32, i32, ptr, ptr, ptr, i8, i8, i16, i16, i16, i32, i16, i16, ptr, ptr, ptr, ptr, ptr, i32, i32 }
%struct.nstime_t = type { i64, i32 }
%struct._address = type { i32, i32, ptr, ptr }
%struct.anon = type { i8, [3 x i8] }

@hf_version = internal global i32 0, align 4
@hf_reserved = internal global i32 0, align 4
@hf_v5_message_class = internal global i32 0, align 4
@hf_message_class = internal global i32 0, align 4
@hf_message_type = internal global i32 0, align 4
@hf_message_length = internal global i32 0, align 4
@ett_m3ua = internal global i32 0, align 4
@proto_m3ua = internal global i32 0, align 4
@version = internal global i32 3, align 4
@.str.265 = private unnamed_addr constant [13 x i8] c"M3UA (ID 05)\00", align 1
@.str.266 = private unnamed_addr constant [13 x i8] c"M3UA (ID 06)\00", align 1
@.str.267 = private unnamed_addr constant [13 x i8] c"M3UA (ID 07)\00", align 1
@.str.268 = private unnamed_addr constant [16 x i8] c"M3UA (RFC 4666)\00", align 1
@.str.269 = private unnamed_addr constant [4 x i8] c"%s \00", align 1
@.str.270 = private unnamed_addr constant [9 x i8] c"reserved\00", align 1
@.str.271 = private unnamed_addr constant [8 x i8] c"%s (%u)\00", align 1

; Function Attrs: null_pointer_is_valid sspstrong uwtable
define internal void @dissect_common_header(ptr noundef %0, ptr noundef %1, ptr noundef %2) #0 {
  %4 = alloca ptr, align 8
  %5 = alloca ptr, align 8
  %6 = alloca ptr, align 8
  %7 = alloca i8, align 1
  %8 = alloca i8, align 1
  store ptr %0, ptr %4, align 8
  store ptr %1, ptr %5, align 8
  store ptr %2, ptr %6, align 8
  call void @llvm.lifetime.start.p0(i64 1, ptr %7) #6
  call void @llvm.lifetime.start.p0(i64 1, ptr %8) #6
  %9 = load ptr, ptr %4, align 8
  %10 = call zeroext i8 @tvb_get_uint8(ptr noundef %9, i32 noundef 2)
  store i8 %10, ptr %7, align 1
  %11 = load ptr, ptr %4, align 8
  %12 = call zeroext i8 @tvb_get_uint8(ptr noundef %11, i32 noundef 3)
  store i8 %12, ptr %8, align 1
  %13 = load ptr, ptr %5, align 8
  %14 = getelementptr inbounds nuw %struct._packet_info, ptr %13, i32 0, i32 1
  %15 = load ptr, ptr %14, align 8
  %16 = load i8, ptr %7, align 1
  %17 = zext i8 %16 to i32
  %18 = mul i32 %17, 256
  %19 = load i8, ptr %8, align 1
  %20 = zext i8 %19 to i32
  %21 = add i32 %18, %20
  %22 = call ptr @val_to_str_const(i32 noundef %21, ptr noundef @message_class_type_acro_values, ptr noundef @.str.270)
  call void (ptr, i32, ptr, ...) @col_add_fstr(ptr noundef %15, i32 noundef 25, ptr noundef @.str.269, ptr noundef %22)
  %23 = load ptr, ptr %6, align 8
  %24 = icmp ne ptr %23, null
  br i1 %24, label %25, label %57

25:                                               ; preds = %3
  %26 = load ptr, ptr %6, align 8
  %27 = load i32, ptr @hf_version, align 4
  %28 = load ptr, ptr %4, align 8
  %29 = call ptr @proto_tree_add_item(ptr noundef %26, i32 noundef %27, ptr noundef %28, i32 noundef 0, i32 noundef 1, i32 noundef 0)
  %30 = load ptr, ptr %6, align 8
  %31 = load i32, ptr @hf_reserved, align 4
  %32 = load ptr, ptr %4, align 8
  %33 = call ptr @proto_tree_add_item(ptr noundef %30, i32 noundef %31, ptr noundef %32, i32 noundef 1, i32 noundef 1, i32 noundef 0)
  %34 = load ptr, ptr %6, align 8
  %35 = load i32, ptr @hf_message_class, align 4
  %36 = load ptr, ptr %4, align 8
  %37 = call ptr @proto_tree_add_item(ptr noundef %34, i32 noundef %35, ptr noundef %36, i32 noundef 2, i32 noundef 1, i32 noundef 0)
  %38 = load ptr, ptr %6, align 8
  %39 = load i32, ptr @hf_message_type, align 4
  %40 = load ptr, ptr %4, align 8
  %41 = load i8, ptr %8, align 1
  %42 = zext i8 %41 to i32
  %43 = load i8, ptr %7, align 1
  %44 = zext i8 %43 to i32
  %45 = mul i32 %44, 256
  %46 = load i8, ptr %8, align 1
  %47 = zext i8 %46 to i32
  %48 = add i32 %45, %47
  %49 = call ptr @val_to_str_const(i32 noundef %48, ptr noundef @message_class_type_values, ptr noundef @.str.270)
  %50 = load i8, ptr %8, align 1
  %51 = zext i8 %50 to i32
  %52 = call ptr (ptr, i32, ptr, i32, i32, i32, ptr, ...) @proto_tree_add_uint_format_value(ptr noundef %38, i32 noundef %39, ptr noundef %40, i32 noundef 3, i32 noundef 1, i32 noundef %42, ptr noundef @.str.271, ptr noundef %49, i32 noundef %51)
  %53 = load ptr, ptr %6, align 8
  %54 = load i32, ptr @hf_message_length, align 4
  %55 = load ptr, ptr %4, align 8
  %56 = call ptr @proto_tree_add_item(ptr noundef %53, i32 noundef %54, ptr noundef %55, i32 noundef 4, i32 noundef 4, i32 noundef 0)
  br label %57

57:                                               ; preds = %25, %3
  call void @llvm.lifetime.end.p0(i64 1, ptr %8) #6
  call void @llvm.lifetime.end.p0(i64 1, ptr %7) #6
  ret void
}

; Function Attrs: null_pointer_is_valid sspstrong uwtable
define internal void @dissect_v5_common_header(ptr noundef %0, ptr noundef %1, ptr noundef %2) #0 {
  %4 = alloca ptr, align 8
  %5 = alloca ptr, align 8
  %6 = alloca ptr, align 8
  %7 = alloca i8, align 1
  %8 = alloca i8, align 1
  store ptr %0, ptr %4, align 8
  store ptr %1, ptr %5, align 8
  store ptr %2, ptr %6, align 8
  call void @llvm.lifetime.start.p0(i64 1, ptr %7) #6
  call void @llvm.lifetime.start.p0(i64 1, ptr %8) #6
  %9 = load ptr, ptr %4, align 8
  %10 = call zeroext i8 @tvb_get_uint8(ptr noundef %9, i32 noundef 2)
  store i8 %10, ptr %7, align 1
  %11 = load ptr, ptr %4, align 8
  %12 = call zeroext i8 @tvb_get_uint8(ptr noundef %11, i32 noundef 3)
  store i8 %12, ptr %8, align 1
  %13 = load ptr, ptr %5, align 8
  %14 = getelementptr inbounds nuw %struct._packet_info, ptr %13, i32 0, i32 1
  %15 = load ptr, ptr %14, align 8
  %16 = load i8, ptr %7, align 1
  %17 = zext i8 %16 to i32
  %18 = mul i32 %17, 256
  %19 = load i8, ptr %8, align 1
  %20 = zext i8 %19 to i32
  %21 = add i32 %18, %20
  %22 = call ptr @val_to_str_const(i32 noundef %21, ptr noundef @v5_message_class_type_acro_values, ptr noundef @.str.270)
  call void (ptr, i32, ptr, ...) @col_add_fstr(ptr noundef %15, i32 noundef 25, ptr noundef @.str.269, ptr noundef %22)
  %23 = load ptr, ptr %6, align 8
  %24 = icmp ne ptr %23, null
  br i1 %24, label %25, label %57

25:                                               ; preds = %3
  %26 = load ptr, ptr %6, align 8
  %27 = load i32, ptr @hf_version, align 4
  %28 = load ptr, ptr %4, align 8
  %29 = call ptr @proto_tree_add_item(ptr noundef %26, i32 noundef %27, ptr noundef %28, i32 noundef 0, i32 noundef 1, i32 noundef 0)
  %30 = load ptr, ptr %6, align 8
  %31 = load i32, ptr @hf_reserved, align 4
  %32 = load ptr, ptr %4, align 8
  %33 = call ptr @proto_tree_add_item(ptr noundef %30, i32 noundef %31, ptr noundef %32, i32 noundef 1, i32 noundef 1, i32 noundef 0)
  %34 = load ptr, ptr %6, align 8
  %35 = load i32, ptr @hf_v5_message_class, align 4
  %36 = load ptr, ptr %4, align 8
  %37 = call ptr @proto_tree_add_item(ptr noundef %34, i32 noundef %35, ptr noundef %36, i32 noundef 2, i32 noundef 1, i32 noundef 0)
  %38 = load ptr, ptr %6, align 8
  %39 = load i32, ptr @hf_message_type, align 4
  %40 = load ptr, ptr %4, align 8
  %41 = load i8, ptr %8, align 1
  %42 = zext i8 %41 to i32
  %43 = load i8, ptr %7, align 1
  %44 = zext i8 %43 to i32
  %45 = mul i32 %44, 256
  %46 = load i8, ptr %8, align 1
  %47 = zext i8 %46 to i32
  %48 = add i32 %45, %47
  %49 = call ptr @val_to_str_const(i32 noundef %48, ptr noundef @v5_message_class_type_values, ptr noundef @.str.270)
  %50 = load i8, ptr %8, align 1
  %51 = zext i8 %50 to i32
  %52 = call ptr (ptr, i32, ptr, i32, i32, i32, ptr, ...) @proto_tree_add_uint_format_value(ptr noundef %38, i32 noundef %39, ptr noundef %40, i32 noundef 3, i32 noundef 1, i32 noundef %42, ptr noundef @.str.271, ptr noundef %49, i32 noundef %51)
  %53 = load ptr, ptr %6, align 8
  %54 = load i32, ptr @hf_message_length, align 4
  %55 = load ptr, ptr %4, align 8
  %56 = call ptr @proto_tree_add_item(ptr noundef %53, i32 noundef %54, ptr noundef %55, i32 noundef 4, i32 noundef 4, i32 noundef 0)
  br label %57

57:                                               ; preds = %25, %3
  call void @llvm.lifetime.end.p0(i64 1, ptr %8) #6
  call void @llvm.lifetime.end.p0(i64 1, ptr %7) #6
  ret void
}

; Function Attrs: null_pointer_is_valid sspstrong uwtable
define internal void @dissect_message(ptr noundef %0, ptr noundef %1, ptr noundef %2, ptr noundef %3) #0 {
  %5 = alloca ptr, align 8
  %6 = alloca ptr, align 8
  %7 = alloca ptr, align 8
  %8 = alloca ptr, align 8
  %9 = alloca ptr, align 8
  %10 = alloca ptr, align 8
  store ptr %0, ptr %5, align 8
  store ptr %1, ptr %6, align 8
  store ptr %2, ptr %7, align 8
  store ptr %3, ptr %8, align 8
  call void @llvm.lifetime.start.p0(i64 8, ptr %9) #6
  call void @llvm.lifetime.start.p0(i64 8, ptr %10) #6
  %11 = load ptr, ptr %5, align 8
  %12 = call ptr @tvb_new_subset_length(ptr noundef %11, i32 noundef 0, i32 noundef 8)
  store ptr %12, ptr %9, align 8
  %13 = load ptr, ptr %5, align 8
  %14 = call ptr @tvb_new_subset_remaining(ptr noundef %13, i32 noundef 8)
  store ptr %14, ptr %10, align 8
  %15 = load i32, ptr @version, align 4
  %16 = icmp eq i32 %15, 0
  br i1 %16, label %17, label %21

17:                                               ; preds = %4
  %18 = load ptr, ptr %9, align 8
  %19 = load ptr, ptr %6, align 8
  %20 = load ptr, ptr %8, align 8
  call void @dissect_v5_common_header(ptr noundef %18, ptr noundef %19, ptr noundef %20)
  br label %25

21:                                               ; preds = %4
  %22 = load ptr, ptr %9, align 8
  %23 = load ptr, ptr %6, align 8
  %24 = load ptr, ptr %8, align 8
  call void @dissect_common_header(ptr noundef %22, ptr noundef %23, ptr noundef %24)
  br label %25

25:                                               ; preds = %21, %17
  %26 = load ptr, ptr %10, align 8
  %27 = load ptr, ptr %6, align 8
  %28 = load ptr, ptr %7, align 8
  %29 = load ptr, ptr %8, align 8
  call void @dissect_parameters(ptr noundef %26, ptr noundef %27, ptr noundef %28, ptr noundef %29)
  call void @llvm.lifetime.end.p0(i64 8, ptr %10) #6
  call void @llvm.lifetime.end.p0(i64 8, ptr %9) #6
  ret void
}

; Function Attrs: null_pointer_is_valid sspstrong uwtable
define internal i32 @dissect_m3ua(ptr noundef %0, ptr noundef %1, ptr noundef %2, ptr noundef %3) #0 {
  %5 = alloca ptr, align 8
  %6 = alloca ptr, align 8
  %7 = alloca ptr, align 8
  %8 = alloca ptr, align 8
  %9 = alloca ptr, align 8
  %10 = alloca ptr, align 8
  store ptr %0, ptr %5, align 8
  store ptr %1, ptr %6, align 8
  store ptr %2, ptr %7, align 8
  store ptr %3, ptr %8, align 8
  call void @llvm.lifetime.start.p0(i64 8, ptr %9) #6
  call void @llvm.lifetime.start.p0(i64 8, ptr %10) #6
  %11 = load i32, ptr @version, align 4
  switch i32 %11, label %28 [
    i32 0, label %12
    i32 1, label %16
    i32 2, label %20
    i32 3, label %24
  ]

12:                                               ; preds = %4
  %13 = load ptr, ptr %6, align 8
  %14 = getelementptr inbounds nuw %struct._packet_info, ptr %13, i32 0, i32 1
  %15 = load ptr, ptr %14, align 8
  call void @col_set_str(ptr noundef %15, i32 noundef 35, ptr noundef @.str.265)
  br label %28

16:                                               ; preds = %4
  %17 = load ptr, ptr %6, align 8
  %18 = getelementptr inbounds nuw %struct._packet_info, ptr %17, i32 0, i32 1
  %19 = load ptr, ptr %18, align 8
  call void @col_set_str(ptr noundef %19, i32 noundef 35, ptr noundef @.str.266)
  br label %28

20:                                               ; preds = %4
  %21 = load ptr, ptr %6, align 8
  %22 = getelementptr inbounds nuw %struct._packet_info, ptr %21, i32 0, i32 1
  %23 = load ptr, ptr %22, align 8
  call void @col_set_str(ptr noundef %23, i32 noundef 35, ptr noundef @.str.267)
  br label %28

24:                                               ; preds = %4
  %25 = load ptr, ptr %6, align 8
  %26 = getelementptr inbounds nuw %struct._packet_info, ptr %25, i32 0, i32 1
  %27 = load ptr, ptr %26, align 8
  call void @col_set_str(ptr noundef %27, i32 noundef 35, ptr noundef @.str.268)
  br label %28

28:                                               ; preds = %4, %24, %20, %16, %12
  %29 = load ptr, ptr %7, align 8
  %30 = load i32, ptr @proto_m3ua, align 4
  %31 = load ptr, ptr %5, align 8
  %32 = call ptr @proto_tree_add_item(ptr noundef %29, i32 noundef %30, ptr noundef %31, i32 noundef 0, i32 noundef -1, i32 noundef 0)
  store ptr %32, ptr %9, align 8
  %33 = load ptr, ptr %9, align 8
  %34 = load i32, ptr @ett_m3ua, align 4
  %35 = call ptr @proto_item_add_subtree(ptr noundef %33, i32 noundef %34)
  store ptr %35, ptr %10, align 8
  %36 = load ptr, ptr %5, align 8
  %37 = load ptr, ptr %6, align 8
  %38 = load ptr, ptr %7, align 8
  %39 = load ptr, ptr %10, align 8
  call void @dissect_message(ptr noundef %36, ptr noundef %37, ptr noundef %38, ptr noundef %39)
  %40 = load ptr, ptr %5, align 8
  %41 = call i32 @tvb_captured_length(ptr noundef %40)
  call void @llvm.lifetime.end.p0(i64 8, ptr %10) #6
  call void @llvm.lifetime.end.p0(i64 8, ptr %9) #6
  ret i32 %41
}