; Function Attrs: null_pointer_is_valid sspstrong uwtable
define internal i32 @dissect_m3ua(ptr noundef %0, ptr noundef %1, ptr noundef %2, ptr readnone captures(none) %3) #0 {
  %5 = load i32, ptr @version, align 4
  %6 = icmp ult i32 %5, 4
  br i1 %6, label %switch.lookup, label %10

switch.lookup:                                    ; preds = %4
  %7 = zext nneg i32 %5 to i64
  %switch.gep = getelementptr inbounds nuw [4 x ptr], ptr @switch.table.dissect_m3ua, i64 0, i64 %7
  %switch.load = load ptr, ptr %switch.gep, align 8
  %8 = getelementptr inbounds nuw i8, ptr %1, i64 8
  %9 = load ptr, ptr %8, align 8
  tail call void @col_set_str(ptr noundef %9, i32 noundef 35, ptr noundef nonnull %switch.load)
  br label %10

10:                                               ; preds = %4, %switch.lookup
  %11 = load i32, ptr @proto_m3ua, align 4
  %12 = tail call ptr @proto_tree_add_item(ptr noundef %2, i32 noundef %11, ptr noundef %0, i32 noundef 0, i32 noundef -1, i32 noundef 0)
  %13 = load i32, ptr @ett_m3ua, align 4
  %14 = tail call ptr @proto_item_add_subtree(ptr noundef %12, i32 noundef %13)
  %15 = tail call ptr @tvb_new_subset_length(ptr noundef %0, i32 noundef 0, i32 noundef 8)
  %16 = tail call ptr @tvb_new_subset_remaining(ptr noundef %0, i32 noundef 8)
  %17 = load i32, ptr @version, align 4
  %18 = icmp eq i32 %17, 0
  %19 = tail call zeroext i8 @tvb_get_uint8(ptr noundef %15, i32 noundef 2)
  %20 = tail call zeroext i8 @tvb_get_uint8(ptr noundef %15, i32 noundef 3)
  %21 = getelementptr inbounds nuw i8, ptr %1, i64 8
  %22 = load ptr, ptr %21, align 8
  %23 = zext i8 %19 to i32
  %24 = shl nuw nsw i32 %23, 8
  %25 = zext i8 %20 to i32
  %26 = or disjoint i32 %24, %25
  %.not.i.i = icmp eq ptr %14, null
  br i1 %18, label %27, label %29

27:                                               ; preds = %10
  %28 = tail call ptr @val_to_str_const(i32 noundef %26, ptr noundef nonnull @v5_message_class_type_acro_values, ptr noundef nonnull @.str.270)
  tail call void (ptr, i32, ptr, ...) @col_add_fstr(ptr noundef %22, i32 noundef 25, ptr noundef nonnull @.str.269, ptr noundef %28)
  br i1 %.not.i.i, label %dissect_message.exit, label %dissect_v5_common_header.exit.sink.split.i

29:                                               ; preds = %10
  %30 = tail call ptr @val_to_str_const(i32 noundef %26, ptr noundef nonnull @message_class_type_acro_values, ptr noundef nonnull @.str.270)
  tail call void (ptr, i32, ptr, ...) @col_add_fstr(ptr noundef %22, i32 noundef 25, ptr noundef nonnull @.str.269, ptr noundef %30)
  br i1 %.not.i.i, label %dissect_message.exit, label %dissect_v5_common_header.exit.sink.split.i

dissect_v5_common_header.exit.sink.split.i:       ; preds = %29, %27
  %hf_message_class.sink.i = phi ptr [ @hf_v5_message_class, %27 ], [ @hf_message_class, %29 ]
  %message_class_type_values.sink.i = phi ptr [ @v5_message_class_type_values, %27 ], [ @message_class_type_values, %29 ]
  %31 = load i32, ptr @hf_version, align 4
  %32 = tail call ptr @proto_tree_add_item(ptr noundef nonnull %14, i32 noundef %31, ptr noundef %15, i32 noundef 0, i32 noundef 1, i32 noundef 0)
  %33 = load i32, ptr @hf_reserved, align 4
  %34 = tail call ptr @proto_tree_add_item(ptr noundef nonnull %14, i32 noundef %33, ptr noundef %15, i32 noundef 1, i32 noundef 1, i32 noundef 0)
  %35 = load i32, ptr %hf_message_class.sink.i, align 4
  %36 = tail call ptr @proto_tree_add_item(ptr noundef nonnull %14, i32 noundef %35, ptr noundef %15, i32 noundef 2, i32 noundef 1, i32 noundef 0)
  %37 = load i32, ptr @hf_message_type, align 4
  %38 = tail call ptr @val_to_str_const(i32 noundef %26, ptr noundef nonnull %message_class_type_values.sink.i, ptr noundef nonnull @.str.270)
  %39 = tail call ptr (ptr, i32, ptr, i32, i32, i32, ptr, ...) @proto_tree_add_uint_format_value(ptr noundef nonnull %14, i32 noundef %37, ptr noundef %15, i32 noundef 3, i32 noundef 1, i32 noundef %25, ptr noundef nonnull @.str.271, ptr noundef %38, i32 noundef %25)
  %40 = load i32, ptr @hf_message_length, align 4
  %41 = tail call ptr @proto_tree_add_item(ptr noundef nonnull %14, i32 noundef %40, ptr noundef %15, i32 noundef 4, i32 noundef 4, i32 noundef 0)
  br label %dissect_message.exit

dissect_message.exit:                             ; preds = %27, %29, %dissect_v5_common_header.exit.sink.split.i
  tail call fastcc void @dissect_parameters(ptr noundef %16, ptr noundef %1, ptr noundef %2, ptr noundef %14)
  %42 = tail call i32 @tvb_captured_length(ptr noundef %0)
  ret i32 %42
}